; Function Attrs: nounwind uwtable
define dso_local zeroext i1 @ReorderBufferXidHasBaseSnapshot(ptr noundef captures(none) %0, i32 noundef %1) local_unnamed_addr #0 {
  %3 = alloca i32, align 4
  %4 = alloca i8, align 1
  %5 = alloca i32, align 4
  %6 = alloca i8, align 1
  call void @llvm.lifetime.start.p0(i64 4, ptr nonnull %5)
  store i32 %1, ptr %5, align 4
  call void @llvm.lifetime.start.p0(i64 1, ptr nonnull %6) #19
  %7 = getelementptr inbounds nuw i8, ptr %0, i64 64
  %8 = load i32, ptr %7, align 8
  %.not.i = icmp ne i32 %8, 0
  %9 = icmp eq i32 %8, %1
  %or.cond.i = and i1 %.not.i, %9
  br i1 %or.cond.i, label %10, label %13

10:                                               ; preds = %2
  %11 = getelementptr inbounds nuw i8, ptr %0, i64 72
  %12 = load ptr, ptr %11, align 8
  %.not34.i = icmp eq ptr %12, null
  call void @llvm.lifetime.end.p0(i64 1, ptr nonnull %6) #19
  call void @llvm.lifetime.end.p0(i64 4, ptr nonnull %5)
  br i1 %.not34.i, label %ReorderBufferTXNByXid.exit.thread, label %ReorderBufferTXNByXid.exit.thread16

13:                                               ; preds = %2
  %14 = load ptr, ptr %0, align 8
  %15 = call ptr @hash_search(ptr noundef %14, ptr noundef nonnull %5, i32 noundef 0, ptr noundef nonnull %6) #19
  %16 = load i8, ptr %6, align 1, !range !6, !noundef !7
  %17 = trunc nuw i8 %16 to i1
  br i1 %17, label %ReorderBufferTXNByXid.exit, label %ReorderBufferTXNByXid.exit.thread19

ReorderBufferTXNByXid.exit.thread19:              ; preds = %13
  %18 = load i32, ptr %5, align 4
  store i32 %18, ptr %7, align 8
  %19 = getelementptr inbounds nuw i8, ptr %0, i64 72
  store ptr null, ptr %19, align 8
  call void @llvm.lifetime.end.p0(i64 1, ptr nonnull %6) #19
  call void @llvm.lifetime.end.p0(i64 4, ptr nonnull %5)
  br label %ReorderBufferTXNByXid.exit.thread

ReorderBufferTXNByXid.exit:                       ; preds = %13
  %20 = getelementptr inbounds nuw i8, ptr %15, i64 8
  %21 = load ptr, ptr %20, align 8
  %22 = load i32, ptr %5, align 4
  store i32 %22, ptr %7, align 8
  %23 = getelementptr inbounds nuw i8, ptr %0, i64 72
  store ptr %21, ptr %23, align 8
  call void @llvm.lifetime.end.p0(i64 1, ptr nonnull %6) #19
  call void @llvm.lifetime.end.p0(i64 4, ptr nonnull %5)
  %24 = icmp eq ptr %21, null
  br i1 %24, label %ReorderBufferTXNByXid.exit.thread, label %ReorderBufferTXNByXid.exit.thread16

ReorderBufferTXNByXid.exit.thread16:              ; preds = %10, %ReorderBufferTXNByXid.exit
  %25 = phi i32 [ %22, %ReorderBufferTXNByXid.exit ], [ %1, %10 ]
  %26 = phi ptr [ %21, %ReorderBufferTXNByXid.exit ], [ %12, %10 ]
  %27 = load i32, ptr %26, align 8
  %28 = and i32 %27, 2
  %.not = icmp eq i32 %28, 0
  br i1 %.not, label %44, label %29

29:                                               ; preds = %ReorderBufferTXNByXid.exit.thread16
  %30 = getelementptr inbounds nuw i8, ptr %26, i64 8
  %31 = load i32, ptr %30, align 8
  call void @llvm.lifetime.start.p0(i64 4, ptr nonnull %3)
  store i32 %31, ptr %3, align 4
  call void @llvm.lifetime.start.p0(i64 1, ptr nonnull %4) #19
  %.not.i9 = icmp ne i32 %25, 0
  %32 = icmp eq i32 %25, %31
  %or.cond.i10 = and i1 %.not.i9, %32
  br i1 %or.cond.i10, label %ReorderBufferTXNByXid.exit14, label %33

33:                                               ; preds = %29
  %34 = load ptr, ptr %0, align 8
  %35 = call ptr @hash_search(ptr noundef %34, ptr noundef nonnull %3, i32 noundef 0, ptr noundef nonnull %4) #19
  %36 = load i8, ptr %4, align 1, !range !6, !noundef !7
  %37 = trunc nuw i8 %36 to i1
  br i1 %37, label %38, label %41

38:                                               ; preds = %33
  %39 = getelementptr inbounds nuw i8, ptr %35, i64 8
  %40 = load ptr, ptr %39, align 8
  br label %41

41:                                               ; preds = %33, %38
  %.030.i11 = phi ptr [ %40, %38 ], [ null, %33 ]
  %42 = load i32, ptr %3, align 4
  store i32 %42, ptr %7, align 8
  %43 = getelementptr inbounds nuw i8, ptr %0, i64 72
  store ptr %.030.i11, ptr %43, align 8
  br label %ReorderBufferTXNByXid.exit14

ReorderBufferTXNByXid.exit14:                     ; preds = %29, %41
  %.0.i12 = phi ptr [ %.030.i11, %41 ], [ %26, %29 ]
  call void @llvm.lifetime.end.p0(i64 1, ptr nonnull %4) #19
  call void @llvm.lifetime.end.p0(i64 4, ptr nonnull %3)
  br label %44

44:                                               ; preds = %ReorderBufferTXNByXid.exit14, %ReorderBufferTXNByXid.exit.thread16
  %.0 = phi ptr [ %.0.i12, %ReorderBufferTXNByXid.exit14 ], [ %26, %ReorderBufferTXNByXid.exit.thread16 ]
  %45 = getelementptr inbounds nuw i8, ptr %.0, i64 88
  %46 = load ptr, ptr %45, align 8
  %47 = icmp ne ptr %46, null
  br label %ReorderBufferTXNByXid.exit.thread

ReorderBufferTXNByXid.exit.thread:                ; preds = %10, %ReorderBufferTXNByXid.exit.thread19, %ReorderBufferTXNByXid.exit, %44
  %.07 = phi i1 [ %47, %44 ], [ false, %ReorderBufferTXNByXid.exit ], [ false, %ReorderBufferTXNByXid.exit.thread19 ], [ false, %10 ]
  ret i1 %.07
}